target datalayout = "e-m:e-p270:32:32-p271:32:32-p272:64:64-i64:64-i128:128-f80:128-n8:16:32:64-S128"
target triple = "x86_64-pc-linux-gnu"

%struct.re_registers = type { i32, i32, ptr, ptr }

; Function Attrs: nounwind sspstrong uwtable
define dso_local i32 @onig_region_resize(ptr noundef %0, i32 noundef %1) #0 {
  %3 = alloca i32, align 4
  %4 = alloca ptr, align 8
  %5 = alloca i32, align 4
  %6 = alloca ptr, align 8
  %7 = alloca i32, align 4
  store ptr %0, ptr %4, align 8, !tbaa !24
  store i32 %1, ptr %5, align 4, !tbaa !26
  %8 = load i32, ptr %5, align 4, !tbaa !26
  %9 = load ptr, ptr %4, align 8, !tbaa !24
  %10 = getelementptr inbounds nuw %struct.re_registers, ptr %9, i32 0, i32 1
  store i32 %8, ptr %10, align 4, !tbaa !27
  %11 = load i32, ptr %5, align 4, !tbaa !26
  %12 = icmp slt i32 %11, 4
  br i1 %12, label %13, label %14

13:                                               ; preds = %2
  store i32 4, ptr %5, align 4, !tbaa !26
  br label %14

14:                                               ; preds = %13, %2
  %15 = load ptr, ptr %4, align 8, !tbaa !24
  %16 = getelementptr inbounds nuw %struct.re_registers, ptr %15, i32 0, i32 0
  %17 = load i32, ptr %16, align 8, !tbaa !33
  %18 = icmp eq i32 %17, 0
  br i1 %18, label %19, label %50

19:                                               ; preds = %14
  %20 = load i32, ptr %5, align 4, !tbaa !26
  %21 = sext i32 %20 to i64
  %22 = mul i64 %21, 8
  %23 = call noalias ptr @malloc(i64 noundef %22) #13
  %24 = load ptr, ptr %4, align 8, !tbaa !24
  %25 = getelementptr inbounds nuw %struct.re_registers, ptr %24, i32 0, i32 2
  store ptr %23, ptr %25, align 8, !tbaa !30
  %26 = load ptr, ptr %4, align 8, !tbaa !24
  %27 = getelementptr inbounds nuw %struct.re_registers, ptr %26, i32 0, i32 2
  %28 = load ptr, ptr %27, align 8, !tbaa !30
  %29 = icmp eq ptr %28, null
  br i1 %29, label %30, label %31

30:                                               ; preds = %19
  store i32 -5, ptr %3, align 4
  br label %107

31:                                               ; preds = %19
  %32 = load i32, ptr %5, align 4, !tbaa !26
  %33 = sext i32 %32 to i64
  %34 = mul i64 %33, 8
  %35 = call noalias ptr @malloc(i64 noundef %34) #13
  %36 = load ptr, ptr %4, align 8, !tbaa !24
  %37 = getelementptr inbounds nuw %struct.re_registers, ptr %36, i32 0, i32 3
  store ptr %35, ptr %37, align 8, !tbaa !29
  %38 = load ptr, ptr %4, align 8, !tbaa !24
  %39 = getelementptr inbounds nuw %struct.re_registers, ptr %38, i32 0, i32 3
  %40 = load ptr, ptr %39, align 8, !tbaa !29
  %41 = icmp eq ptr %40, null
  br i1 %41, label %42, label %46

42:                                               ; preds = %31
  %43 = load ptr, ptr %4, align 8, !tbaa !24
  %44 = getelementptr inbounds nuw %struct.re_registers, ptr %43, i32 0, i32 2
  %45 = load ptr, ptr %44, align 8, !tbaa !30
  call void @free(ptr noundef %45) #12
  store i32 -5, ptr %3, align 4
  br label %107

46:                                               ; preds = %31
  %47 = load i32, ptr %5, align 4, !tbaa !26
  %48 = load ptr, ptr %4, align 8, !tbaa !24
  %49 = getelementptr inbounds nuw %struct.re_registers, ptr %48, i32 0, i32 0
  store i32 %47, ptr %49, align 8, !tbaa !33
  br label %106

50:                                               ; preds = %14
  %51 = load ptr, ptr %4, align 8, !tbaa !24
  %52 = getelementptr inbounds nuw %struct.re_registers, ptr %51, i32 0, i32 0
  %53 = load i32, ptr %52, align 8, !tbaa !33
  %54 = load i32, ptr %5, align 4, !tbaa !26
  %55 = icmp slt i32 %53, %54
  br i1 %55, label %56, label %105

56:                                               ; preds = %50
  call void @llvm.lifetime.start.p0(i64 8, ptr %6) #12
  %57 = load ptr, ptr %4, align 8, !tbaa !24
  %58 = getelementptr inbounds nuw %struct.re_registers, ptr %57, i32 0, i32 0
  store i32 0, ptr %58, align 8, !tbaa !33
  %59 = load ptr, ptr %4, align 8, !tbaa !24
  %60 = getelementptr inbounds nuw %struct.re_registers, ptr %59, i32 0, i32 2
  %61 = load ptr, ptr %60, align 8, !tbaa !30
  %62 = load i32, ptr %5, align 4, !tbaa !26
  %63 = sext i32 %62 to i64
  %64 = mul i64 %63, 8
  %65 = call ptr @realloc(ptr noundef %61, i64 noundef %64) #14
  store ptr %65, ptr %6, align 8, !tbaa !14
  %66 = load ptr, ptr %6, align 8, !tbaa !14
  %67 = icmp eq ptr %66, null
  br i1 %67, label %68, label %75

68:                                               ; preds = %56
  %69 = load ptr, ptr %4, align 8, !tbaa !24
  %70 = getelementptr inbounds nuw %struct.re_registers, ptr %69, i32 0, i32 2
  %71 = load ptr, ptr %70, align 8, !tbaa !30
  call void @free(ptr noundef %71) #12
  %72 = load ptr, ptr %4, align 8, !tbaa !24
  %73 = getelementptr inbounds nuw %struct.re_registers, ptr %72, i32 0, i32 3
  %74 = load ptr, ptr %73, align 8, !tbaa !29
  call void @free(ptr noundef %74) #12
  store i32 -5, ptr %3, align 4
  store i32 1, ptr %7, align 4
  br label %102

75:                                               ; preds = %56
  %76 = load ptr, ptr %6, align 8, !tbaa !14
  %77 = load ptr, ptr %4, align 8, !tbaa !24
  %78 = getelementptr inbounds nuw %struct.re_registers, ptr %77, i32 0, i32 2
  store ptr %76, ptr %78, align 8, !tbaa !30
  %79 = load ptr, ptr %4, align 8, !tbaa !24
  %80 = getelementptr inbounds nuw %struct.re_registers, ptr %79, i32 0, i32 3
  %81 = load ptr, ptr %80, align 8, !tbaa !29
  %82 = load i32, ptr %5, align 4, !tbaa !26
  %83 = sext i32 %82 to i64
  %84 = mul i64 %83, 8
  %85 = call ptr @realloc(ptr noundef %81, i64 noundef %84) #14
  store ptr %85, ptr %6, align 8, !tbaa !14
  %86 = load ptr, ptr %6, align 8, !tbaa !14
  %87 = icmp eq ptr %86, null
  br i1 %87, label %88, label %95

88:                                               ; preds = %75
  %89 = load ptr, ptr %4, align 8, !tbaa !24
  %90 = getelementptr inbounds nuw %struct.re_registers, ptr %89, i32 0, i32 2
  %91 = load ptr, ptr %90, align 8, !tbaa !30
  call void @free(ptr noundef %91) #12
  %92 = load ptr, ptr %4, align 8, !tbaa !24
  %93 = getelementptr inbounds nuw %struct.re_registers, ptr %92, i32 0, i32 3
  %94 = load ptr, ptr %93, align 8, !tbaa !29
  call void @free(ptr noundef %94) #12
  store i32 -5, ptr %3, align 4
  store i32 1, ptr %7, align 4
  br label %102

95:                                               ; preds = %75
  %96 = load ptr, ptr %6, align 8, !tbaa !14
  %97 = load ptr, ptr %4, align 8, !tbaa !24
  %98 = getelementptr inbounds nuw %struct.re_registers, ptr %97, i32 0, i32 3
  store ptr %96, ptr %98, align 8, !tbaa !29
  %99 = load i32, ptr %5, align 4, !tbaa !26
  %100 = load ptr, ptr %4, align 8, !tbaa !24
  %101 = getelementptr inbounds nuw %struct.re_registers, ptr %100, i32 0, i32 0
  store i32 %99, ptr %101, align 8, !tbaa !33
  store i32 0, ptr %7, align 4
  br label %102

102:                                              ; preds = %95, %88, %68
  call void @llvm.lifetime.end.p0(i64 8, ptr %6) #12
  %103 = load i32, ptr %7, align 4
  switch i32 %103, label %109 [
    i32 0, label %104
    i32 1, label %107
  ]

104:                                              ; preds = %102
  br label %105

105:                                              ; preds = %104, %50
  br label %106

106:                                              ; preds = %105, %46
  store i32 0, ptr %3, align 4
  br label %107

107:                                              ; preds = %106, %102, %42, %30
  %108 = load i32, ptr %3, align 4
  ret i32 %108

109:                                              ; preds = %102
  unreachable
}