; Function Attrs: mustprogress nounwind sspstrong willreturn uwtable
define dso_local range(i32 -5, 1) i32 @onig_region_resize(ptr noundef captures(none) initializes((4, 8)) %0, i32 noundef %1) local_unnamed_addr #3 {
  %3 = getelementptr inbounds nuw i8, ptr %0, i64 4
  store i32 %1, ptr %3, align 4, !tbaa !20
  %spec.store.select = tail call i32 @llvm.smax.i32(i32 %1, i32 4)
  %4 = load i32, ptr %0, align 8, !tbaa !27
  %5 = icmp eq i32 %4, 0
  br i1 %5, label %6, label %18

6:                                                ; preds = %2
  %7 = zext nneg i32 %spec.store.select to i64
  %8 = shl nuw nsw i64 %7, 3
  %9 = tail call noalias ptr @malloc(i64 noundef %8) #22
  %10 = getelementptr inbounds nuw i8, ptr %0, i64 8
  store ptr %9, ptr %10, align 8, !tbaa !24
  %11 = icmp eq ptr %9, null
  br i1 %11, label %.thread, label %12

12:                                               ; preds = %6
  %13 = tail call noalias ptr @malloc(i64 noundef %8) #22
  %14 = getelementptr inbounds nuw i8, ptr %0, i64 16
  store ptr %13, ptr %14, align 8, !tbaa !23
  %15 = icmp eq ptr %13, null
  br i1 %15, label %16, label %17

16:                                               ; preds = %12
  tail call void @free(ptr noundef nonnull %9) #21
  br label %.thread

17:                                               ; preds = %12
  store i32 %spec.store.select, ptr %0, align 8, !tbaa !27
  br label %.thread

18:                                               ; preds = %2
  %19 = icmp slt i32 %4, %spec.store.select
  br i1 %19, label %20, label %.thread

20:                                               ; preds = %18
  store i32 0, ptr %0, align 8, !tbaa !27
  %21 = getelementptr inbounds nuw i8, ptr %0, i64 8
  %22 = load ptr, ptr %21, align 8, !tbaa !24
  %23 = zext nneg i32 %spec.store.select to i64
  %24 = shl nuw nsw i64 %23, 3
  %25 = tail call ptr @realloc(ptr noundef %22, i64 noundef %24) #23
  %26 = icmp eq ptr %25, null
  br i1 %26, label %27, label %31

27:                                               ; preds = %20
  %28 = load ptr, ptr %21, align 8, !tbaa !24
  tail call void @free(ptr noundef %28) #21
  %29 = getelementptr inbounds nuw i8, ptr %0, i64 16
  %30 = load ptr, ptr %29, align 8, !tbaa !23
  tail call void @free(ptr noundef %30) #21
  br label %.thread

31:                                               ; preds = %20
  store ptr %25, ptr %21, align 8, !tbaa !24
  %32 = getelementptr inbounds nuw i8, ptr %0, i64 16
  %33 = load ptr, ptr %32, align 8, !tbaa !23
  %34 = tail call ptr @realloc(ptr noundef %33, i64 noundef %24) #23
  %35 = icmp eq ptr %34, null
  br i1 %35, label %36, label %39

36:                                               ; preds = %31
  %37 = load ptr, ptr %21, align 8, !tbaa !24
  tail call void @free(ptr noundef %37) #21
  %38 = load ptr, ptr %32, align 8, !tbaa !23
  tail call void @free(ptr noundef %38) #21
  br label %.thread

39:                                               ; preds = %31
  store ptr %34, ptr %32, align 8, !tbaa !23
  store i32 %spec.store.select, ptr %0, align 8, !tbaa !27
  br label %.thread

.thread:                                          ; preds = %36, %27, %17, %18, %39, %6, %16
  %.033 = phi i32 [ -5, %16 ], [ -5, %6 ], [ 0, %39 ], [ 0, %18 ], [ 0, %17 ], [ -5, %27 ], [ -5, %36 ]
  ret i32 %.033
}